target datalayout = "e-m:e-p270:32:32-p271:32:32-p272:64:64-i64:64-i128:128-f80:128-n8:16:32:64-S128"
target triple = "x86_64-pc-linux-gnu"

%struct.dt_lib_module_t = type { %struct.dt_action_t, ptr, ptr, ptr, ptr, ptr, ptr, ptr, ptr, ptr, ptr, ptr, ptr, ptr, ptr, ptr, ptr, ptr, ptr, ptr, ptr, ptr, ptr, ptr, ptr, ptr, ptr, ptr, ptr, ptr, ptr, [128 x i8], ptr, ptr, i32, ptr, ptr, ptr, i32 }
%struct.dt_action_t = type { i32, ptr, ptr, ptr, ptr, ptr }
%struct.dt_lib_tagging_t = type { [1024 x i8], ptr, ptr, ptr, ptr, ptr, ptr, ptr, ptr, ptr, ptr, ptr, ptr, ptr, ptr, ptr, ptr, ptr, ptr, ptr, ptr, ptr, i32, i32, i32, i32, i32, ptr, ptr, %struct.anon, i32 }
%struct.anon = type { ptr, ptr, ptr, i32, i32, i32, i32, i32 }
%struct._GtkTreeIter = type { i32, ptr, ptr, ptr }

; Function Attrs: nounwind uwtable
define internal void @_pop_menu_attached_attach_to_all(ptr noundef %0, ptr noundef %1) #0 {
  %3 = alloca ptr, align 8
  %4 = alloca ptr, align 8
  %5 = alloca ptr, align 8
  %6 = alloca %struct._GtkTreeIter, align 8
  %7 = alloca ptr, align 8
  %8 = alloca ptr, align 8
  %9 = alloca i32, align 4
  %10 = alloca i32, align 4
  %11 = alloca i32, align 4
  %12 = alloca i32, align 4
  %13 = alloca %struct._GtkTreeIter, align 8
  %14 = alloca ptr, align 8
  store ptr %0, ptr %3, align 8, !tbaa !108
  store ptr %1, ptr %4, align 8, !tbaa !6
  call void @llvm.lifetime.start.p0(i64 8, ptr %5) #11
  %15 = load ptr, ptr %4, align 8, !tbaa !6
  %16 = getelementptr inbounds nuw %struct.dt_lib_module_t, ptr %15, i32 0, i32 30
  %17 = load ptr, ptr %16, align 8, !tbaa !11
  store ptr %17, ptr %5, align 8, !tbaa !19
  call void @llvm.lifetime.start.p0(i64 32, ptr %6) #11
  call void @llvm.lifetime.start.p0(i64 8, ptr %7) #11
  %18 = load ptr, ptr %5, align 8, !tbaa !19
  %19 = getelementptr inbounds nuw %struct.dt_lib_tagging_t, ptr %18, i32 0, i32 3
  %20 = load ptr, ptr %19, align 8, !tbaa !34
  %21 = call i64 @gtk_tree_view_get_type() #12
  %22 = call ptr @g_type_check_instance_cast(ptr noundef %20, i64 noundef %21)
  %23 = call ptr @gtk_tree_view_get_model(ptr noundef %22)
  store ptr %23, ptr %7, align 8, !tbaa !36
  call void @llvm.lifetime.start.p0(i64 8, ptr %8) #11
  %24 = load ptr, ptr %5, align 8, !tbaa !19
  %25 = getelementptr inbounds nuw %struct.dt_lib_tagging_t, ptr %24, i32 0, i32 3
  %26 = load ptr, ptr %25, align 8, !tbaa !34
  %27 = call i64 @gtk_tree_view_get_type() #12
  %28 = call ptr @g_type_check_instance_cast(ptr noundef %26, i64 noundef %27)
  %29 = call ptr @gtk_tree_view_get_selection(ptr noundef %28)
  store ptr %29, ptr %8, align 8, !tbaa !59
  %30 = load ptr, ptr %8, align 8, !tbaa !59
  %31 = call i32 @gtk_tree_selection_get_selected(ptr noundef %30, ptr noundef %7, ptr noundef %6)
  %32 = icmp ne i32 %31, 0
  br i1 %32, label %34, label %33

33:                                               ; preds = %2
  store i32 1, ptr %9, align 4
  br label %93

34:                                               ; preds = %2
  call void @llvm.lifetime.start.p0(i64 4, ptr %10) #11
  %35 = load ptr, ptr %7, align 8, !tbaa !36
  call void (ptr, ptr, ...) @gtk_tree_model_get(ptr noundef %35, ptr noundef %6, i32 noundef 1, ptr noundef %10, i32 noundef -1)
  %36 = load i32, ptr %10, align 4, !tbaa !31
  %37 = icmp ule i32 %36, 0
  br i1 %37, label %38, label %39

38:                                               ; preds = %34
  store i32 1, ptr %9, align 4
  br label %92

39:                                               ; preds = %34
  call void @llvm.lifetime.start.p0(i64 4, ptr %11) #11
  %40 = load i32, ptr %10, align 4, !tbaa !31
  %41 = call i32 @dt_tag_attach(i32 noundef %40, i32 noundef -1, i32 noundef 1, i32 noundef 1)
  store i32 %41, ptr %11, align 4, !tbaa !31
  %42 = load i32, ptr %10, align 4, !tbaa !31
  %43 = call ptr @dt_tag_get_name(i32 noundef %42)
  %44 = load ptr, ptr %5, align 8, !tbaa !19
  call void @_save_last_tag_used(ptr noundef %43, ptr noundef %44)
  %45 = load ptr, ptr %4, align 8, !tbaa !6
  call void @_init_treeview(ptr noundef %45, i32 noundef 0)
  call void @llvm.lifetime.start.p0(i64 4, ptr %12) #11
  %46 = load i32, ptr %10, align 4, !tbaa !31
  %47 = call i32 @dt_tag_images_count(i32 noundef %46)
  store i32 %47, ptr %12, align 4, !tbaa !31
  %48 = load ptr, ptr %5, align 8, !tbaa !19
  %49 = getelementptr inbounds nuw %struct.dt_lib_tagging_t, ptr %48, i32 0, i32 4
  %50 = load ptr, ptr %49, align 8, !tbaa !40
  %51 = call i64 @gtk_tree_view_get_type() #12
  %52 = call ptr @g_type_check_instance_cast(ptr noundef %50, i64 noundef %51)
  %53 = call ptr @gtk_tree_view_get_model(ptr noundef %52)
  store ptr %53, ptr %7, align 8, !tbaa !36
  %54 = load ptr, ptr %7, align 8, !tbaa !36
  %55 = call i32 @gtk_tree_model_get_iter_first(ptr noundef %54, ptr noundef %6)
  %56 = icmp ne i32 %55, 0
  br i1 %56, label %57, label %86

57:                                               ; preds = %39
  %58 = load ptr, ptr %7, align 8, !tbaa !36
  %59 = load i32, ptr %10, align 4, !tbaa !31
  %60 = call i32 @_find_tag_iter_tagid(ptr noundef %58, ptr noundef %6, i32 noundef %59)
  %61 = icmp ne i32 %60, 0
  br i1 %61, label %62, label %85

62:                                               ; preds = %57
  call void @llvm.lifetime.start.p0(i64 32, ptr %13) #11
  call void @llvm.lifetime.start.p0(i64 8, ptr %14) #11
  %63 = load ptr, ptr %7, align 8, !tbaa !36
  %64 = call i64 @gtk_tree_model_filter_get_type() #12
  %65 = call ptr @g_type_check_instance_cast(ptr noundef %63, i64 noundef %64)
  %66 = call ptr @gtk_tree_model_filter_get_model(ptr noundef %65)
  store ptr %66, ptr %14, align 8, !tbaa !36
  %67 = load ptr, ptr %7, align 8, !tbaa !36
  %68 = call i64 @gtk_tree_model_filter_get_type() #12
  %69 = call ptr @g_type_check_instance_cast(ptr noundef %67, i64 noundef %68)
  call void @gtk_tree_model_filter_convert_iter_to_child_iter(ptr noundef %69, ptr noundef %13, ptr noundef %6)
  %70 = load ptr, ptr %5, align 8, !tbaa !19
  %71 = getelementptr inbounds nuw %struct.dt_lib_tagging_t, ptr %70, i32 0, i32 22
  %72 = load i32, ptr %71, align 8, !tbaa !38
  %73 = icmp ne i32 %72, 0
  br i1 %73, label %74, label %79

74:                                               ; preds = %62
  %75 = load ptr, ptr %14, align 8, !tbaa !36
  %76 = call i64 @gtk_tree_store_get_type() #12
  %77 = call ptr @g_type_check_instance_cast(ptr noundef %75, i64 noundef %76)
  %78 = load i32, ptr %12, align 4, !tbaa !31
  call void (ptr, ptr, ...) @gtk_tree_store_set(ptr noundef %77, ptr noundef %13, i32 noundef 4, i32 noundef %78, i32 noundef -1)
  br label %84

79:                                               ; preds = %62
  %80 = load ptr, ptr %14, align 8, !tbaa !36
  %81 = call i64 @gtk_list_store_get_type() #12
  %82 = call ptr @g_type_check_instance_cast(ptr noundef %80, i64 noundef %81)
  %83 = load i32, ptr %12, align 4, !tbaa !31
  call void (ptr, ptr, ...) @gtk_list_store_set(ptr noundef %82, ptr noundef %13, i32 noundef 4, i32 noundef %83, i32 noundef -1)
  br label %84

84:                                               ; preds = %79, %74
  call void @llvm.lifetime.end.p0(i64 8, ptr %14) #11
  call void @llvm.lifetime.end.p0(i64 32, ptr %13) #11
  br label %85

85:                                               ; preds = %84, %57
  br label %86

86:                                               ; preds = %85, %39
  %87 = load i32, ptr %11, align 4, !tbaa !31
  %88 = icmp ne i32 %87, 0
  br i1 %88, label %89, label %91

89:                                               ; preds = %86
  %90 = load ptr, ptr %4, align 8, !tbaa !6
  call void @_raise_signal_tag_changed(ptr noundef %90)
  call void @dt_image_synch_xmp(i32 noundef -1)
  br label %91

91:                                               ; preds = %89, %86
  call void @llvm.lifetime.end.p0(i64 4, ptr %12) #11
  call void @llvm.lifetime.end.p0(i64 4, ptr %11) #11
  store i32 0, ptr %9, align 4
  br label %92

92:                                               ; preds = %91, %38
  call void @llvm.lifetime.end.p0(i64 4, ptr %10) #11
  br label %93

93:                                               ; preds = %92, %33
  call void @llvm.lifetime.end.p0(i64 8, ptr %8) #11
  call void @llvm.lifetime.end.p0(i64 8, ptr %7) #11
  call void @llvm.lifetime.end.p0(i64 32, ptr %6) #11
  call void @llvm.lifetime.end.p0(i64 8, ptr %5) #11
  %94 = load i32, ptr %9, align 4
  switch i32 %94, label %96 [
    i32 0, label %95
    i32 1, label %95
  ]

95:                                               ; preds = %93, %93
  ret void

96:                                               ; preds = %93
  unreachable
}