; Function Attrs: nounwind uwtable
define internal void @_pop_menu_attached_attach_to_all(ptr readnone captures(none) %0, ptr noundef %1) #1 {
  %3 = alloca %struct._GtkTreeIter, align 8
  %4 = alloca ptr, align 8
  %5 = alloca i32, align 4
  %6 = alloca %struct._GtkTreeIter, align 8
  %7 = getelementptr inbounds nuw i8, ptr %1, i64 280
  %8 = load ptr, ptr %7, align 8, !tbaa !6
  call void @llvm.lifetime.start.p0(i64 32, ptr nonnull %3) #16
  call void @llvm.lifetime.start.p0(i64 8, ptr nonnull %4) #16
  %9 = getelementptr inbounds nuw i8, ptr %8, i64 1040
  %10 = load ptr, ptr %9, align 8, !tbaa !28
  %11 = tail call i64 @gtk_tree_view_get_type() #17
  %12 = tail call ptr @g_type_check_instance_cast(ptr noundef %10, i64 noundef %11) #16
  %13 = tail call ptr @gtk_tree_view_get_model(ptr noundef %12) #16
  store ptr %13, ptr %4, align 8, !tbaa !29
  %14 = load ptr, ptr %9, align 8, !tbaa !28
  %15 = tail call ptr @g_type_check_instance_cast(ptr noundef %14, i64 noundef %11) #16
  %16 = tail call ptr @gtk_tree_view_get_selection(ptr noundef %15) #16
  %17 = call i32 @gtk_tree_selection_get_selected(ptr noundef %16, ptr noundef nonnull %4, ptr noundef nonnull %3) #16
  %.not = icmp eq i32 %17, 0
  br i1 %.not, label %56, label %18

18:                                               ; preds = %2
  call void @llvm.lifetime.start.p0(i64 4, ptr nonnull %5) #16
  %19 = load ptr, ptr %4, align 8, !tbaa !29
  call void (ptr, ptr, ...) @gtk_tree_model_get(ptr noundef %19, ptr noundef nonnull %3, i32 noundef 1, ptr noundef nonnull %5, i32 noundef -1) #16
  %20 = load i32, ptr %5, align 4, !tbaa !46
  %21 = icmp eq i32 %20, 0
  br i1 %21, label %55, label %22

22:                                               ; preds = %18
  %23 = call i32 @dt_tag_attach(i32 noundef %20, i32 noundef -1, i32 noundef 1, i32 noundef 1) #16
  %24 = load i32, ptr %5, align 4, !tbaa !46
  %25 = call ptr @dt_tag_get_name(i32 noundef %24) #16
  call fastcc void @_save_last_tag_used(ptr noundef %25, ptr noundef nonnull %8)
  call fastcc void @_init_treeview(ptr noundef nonnull %1, i32 noundef 0)
  %26 = load i32, ptr %5, align 4, !tbaa !46
  %27 = call i32 @dt_tag_images_count(i32 noundef %26) #16
  %28 = getelementptr inbounds nuw i8, ptr %8, i64 1048
  %29 = load ptr, ptr %28, align 8, !tbaa !27
  %30 = call ptr @g_type_check_instance_cast(ptr noundef %29, i64 noundef %11) #16
  %31 = call ptr @gtk_tree_view_get_model(ptr noundef %30) #16
  store ptr %31, ptr %4, align 8, !tbaa !29
  %32 = call i32 @gtk_tree_model_get_iter_first(ptr noundef %31, ptr noundef nonnull %3) #16
  %.not13 = icmp eq i32 %32, 0
  br i1 %.not13, label %53, label %33

33:                                               ; preds = %22
  %34 = load ptr, ptr %4, align 8, !tbaa !29
  %35 = load i32, ptr %5, align 4, !tbaa !46
  %36 = call fastcc i32 @_find_tag_iter_tagid(ptr noundef %34, ptr noundef %3, i32 noundef %35)
  %.not14 = icmp eq i32 %36, 0
  br i1 %.not14, label %53, label %37

37:                                               ; preds = %33
  call void @llvm.lifetime.start.p0(i64 32, ptr nonnull %6) #16
  %38 = load ptr, ptr %4, align 8, !tbaa !29
  %39 = tail call i64 @gtk_tree_model_filter_get_type() #17
  %40 = call ptr @g_type_check_instance_cast(ptr noundef %38, i64 noundef %39) #16
  %41 = call ptr @gtk_tree_model_filter_get_model(ptr noundef %40) #16
  %42 = load ptr, ptr %4, align 8, !tbaa !29
  %43 = call ptr @g_type_check_instance_cast(ptr noundef %42, i64 noundef %39) #16
  call void @gtk_tree_model_filter_convert_iter_to_child_iter(ptr noundef %43, ptr noundef nonnull %6, ptr noundef nonnull %3) #16
  %44 = getelementptr inbounds nuw i8, ptr %8, i64 1192
  %45 = load i32, ptr %44, align 8, !tbaa !36
  %.not15 = icmp eq i32 %45, 0
  br i1 %.not15, label %49, label %46

46:                                               ; preds = %37
  %47 = tail call i64 @gtk_tree_store_get_type() #17
  %48 = call ptr @g_type_check_instance_cast(ptr noundef %41, i64 noundef %47) #16
  call void (ptr, ptr, ...) @gtk_tree_store_set(ptr noundef %48, ptr noundef nonnull %6, i32 noundef 4, i32 noundef %27, i32 noundef -1) #16
  br label %52

49:                                               ; preds = %37
  %50 = tail call i64 @gtk_list_store_get_type() #17
  %51 = call ptr @g_type_check_instance_cast(ptr noundef %41, i64 noundef %50) #16
  call void (ptr, ptr, ...) @gtk_list_store_set(ptr noundef %51, ptr noundef nonnull %6, i32 noundef 4, i32 noundef %27, i32 noundef -1) #16
  br label %52

52:                                               ; preds = %49, %46
  call void @llvm.lifetime.end.p0(i64 32, ptr nonnull %6) #16
  br label %53

53:                                               ; preds = %33, %52, %22
  %.not16 = icmp eq i32 %23, 0
  br i1 %.not16, label %55, label %54

54:                                               ; preds = %53
  call fastcc void @_raise_signal_tag_changed(ptr noundef nonnull %1)
  call void @dt_image_synch_xmp(i32 noundef -1) #16
  br label %55

55:                                               ; preds = %53, %54, %18
  call void @llvm.lifetime.end.p0(i64 4, ptr nonnull %5) #16
  br label %56

56:                                               ; preds = %2, %55
  call void @llvm.lifetime.end.p0(i64 8, ptr nonnull %4) #16
  call void @llvm.lifetime.end.p0(i64 32, ptr nonnull %3) #16
  ret void
}